Certificate:
    Data:
        Version: 3 (0x2)
        Serial Number:
            95:f7:be:7a:56:b5:60:97
    Signature Algorithm: sha256WithRSAEncryption
        Issuer: C=SV, ST=Santa Ana, O=Certic Master Inc, OU=Central, CN=www.certicmasterinc.com./emailAddress=certic@mails.com
        Validity
            Not Before: Mar 12 16:54:04 2018 GMT
            Not After : Mar 12 16:54:04 2019 GMT
        Subject: C=SV, ST=Santa Ana, L=Santa Ana, O=Chilate, OU=chepe, CN=www.chilate.com./emailAddress=mails@chilate.com
        Subject Public Key Info:
            Public Key Algorithm: rsaEncryption
                Public-Key: (4096 bit)
                Modulus:
                    00:ac:71:5d:e3:dc:85:4a:ae:c9:9f:e0:6f:0e:d9:
                    56:b2:06:dd:c8:70:2b:9a:18:e5:1b:8c:25:b0:c4:
                    a4:9d:63:07:8c:bf:c2:d6:e8:cf:1f:2c:2b:85:13:
                    a6:ea:4a:4e:cd:7a:df:5d:0c:0c:34:ac:76:f0:ac:
                    e9:0d:64:1e:a8:c9:68:8e:17:3f:1d:cc:40:23:26:
                    e7:7e:30:4b:9b:09:32:d7:bd:70:4b:23:aa:70:0c:
                    b4:ab:25:33:7f:da:de:0d:09:b6:4f:23:81:1d:a3:
                    c8:65:d1:f8:dd:9d:83:ae:2d:be:f2:5b:ac:27:fc:
                    a9:8c:33:ee:41:ef:58:7c:cc:cf:46:56:cd:22:fa:
                    e6:0d:f9:7b:db:c7:53:27:d3:93:e3:2c:20:12:fe:
                    77:64:b2:37:0a:d2:a0:41:8f:81:23:aa:76:b7:79:
                    2c:8c:4d:63:5e:1a:a1:39:d0:c5:d4:8b:18:20:0b:
                    6d:44:4d:3c:10:36:eb:1f:34:63:da:5c:2c:29:4c:
                    07:59:44:4e:9d:de:f2:4d:eb:93:81:2f:a1:48:fd:
                    53:a3:d1:0e:e3:ca:48:bd:38:f5:6d:60:de:7a:b1:
                    87:a9:b1:01:73:09:6c:33:64:a4:a0:b7:2f:ee:b3:
                    db:b5:0d:81:df:09:45:78:fb:5e:63:19:3f:45:19:
                    ac:73:96:a5:d0:f1:e3:52:da:e9:c7:96:57:41:f7:
                    ed:92:e4:59:ff:04:01:f3:56:87:4b:f7:48:cd:7a:
                    22:6a:45:bf:f8:45:54:b0:54:ed:46:78:53:a4:f9:
                    c3:b9:d9:14:4b:3a:4b:10:46:4b:22:27:bc:79:a1:
                    ed:dd:0e:a6:c2:a2:e6:4a:45:78:71:99:c8:d0:31:
                    68:63:66:e1:a8:ec:00:b7:45:68:89:d0:6a:c0:a1:
                    e3:22:f3:6d:bf:16:e4:d8:5c:3c:9d:34:ec:0f:c1:
                    f0:38:05:5c:93:77:94:5d:ce:38:38:3c:f4:cc:58:
                    3d:0c:e0:2d:ef:b3:5e:47:32:d5:34:d7:a5:43:37:
                    e8:d2:39:db:d5:04:5d:ca:7f:81:19:ba:2c:62:9a:
                    42:e0:1b:94:bf:66:2a:58:fc:aa:81:b2:f4:e4:5e:
                    ef:f5:da:b3:81:05:0e:a7:4a:86:82:16:97:f6:18:
                    11:cc:1d:14:a5:80:98:25:4d:1c:ba:4e:3d:d4:8f:
                    a9:e5:ae:7d:85:eb:8e:79:de:c3:8c:02:80:55:9c:
                    18:84:92:43:e8:56:f5:2f:78:c3:31:18:63:4b:ad:
                    b1:80:f0:24:af:d4:89:7f:4c:d2:a7:b2:11:d0:23:
                    db:cb:f5:bc:cc:5a:92:e6:de:e3:eb:c9:4f:57:e4:
                    f5:63:3b
                Exponent: 65537 (0x10001)
        X509v3 extensions:
            X509v3 Basic Constraints: 
                CA:FALSE
            Netscape Comment: 
                OpenSSL Generated Certificate
            X509v3 Subject Key Identifier: 
                84:76:8C:8F:C4:49:55:7C:55:03:89:92:02:98:9A:DA:A1:48:1A:0D
            X509v3 Authority Key Identifier: 
                keyid:7B:05:DC:54:37:A1:54:39:BA:AE:DC:B2:8E:C0:C7:02:96:1A:B7:50

    Signature Algorithm: sha256WithRSAEncryption
         8d:1f:a2:2b:54:7a:e7:a2:9b:b0:cd:08:95:c7:bb:0e:7b:d5:
         b3:39:89:f6:8b:90:e8:da:00:85:5a:cc:d1:3d:50:9d:90:5e:
         7e:93:3c:13:d9:0a:f9:96:58:0a:db:8d:ad:45:78:f0:ae:65:
         39:9d:78:fb:37:14:1b:5a:3f:98:c4:0c:c9:f3:db:0d:c1:01:
         0e:ca:dd:2f:60:04:b5:18:4b:38:60:a6:49:69:1f:09:e6:9a:
         ab:3a:fc:3d:31:6e:eb:c0:3a:f6:42:4d:10:4d:8b:2c:19:47:
         8a:c6:7a:55:01:b8:55:d2:bc:74:8c:dd:e4:58:d4:13:1f:bb:
         0f:16:fb:2f:50:73:76:7f:c9:66:01:5e:45:c6:3e:0e:72:1a:
         f3:a7:97:cc:aa:74:8a:52:b5:81:d0:6e:0d:3d:46:6a:58:d4:
         2d:dd:e9:d2:c5:83:9e:1c:80:da:36:60:42:16:a7:71:3b:65:
         6c:27:1f:e6:ed:56:35:e7:f1:2f:93:7a:6f:56:f8:84:2d:88:
         60:32:88:03:17:a1:ec:a2:b1:32:ec:5d:3a:36:14:e8:46:a1:
         50:db:9d:c1:27:76:0d:af:f1:5c:db:66:14:31:7e:97:4c:c4:
         4b:ee:18:c4:7b:49:84:c5:16:c3:19:2d:1a:b0:ac:a7:42:46:
         a8:90:ce:23:0e:ec:7c:a7:1a:90:c3:3b:28:57:fd:bf:34:ea:
         74:d9:38:db:d9:67:b0:a5:e2:a5:19:39:04:f5:50:d6:fc:d8:
         5f:5e:f4:ac:9b:d0:c9:3f:05:6c:51:9b:89:f8:1a:e0:48:8f:
         20:3c:c6:30:dd:34:30:7b:0c:0c:b3:ec:b3:46:9d:55:4d:dd:
         d6:2e:a6:7a:d5:cc:dc:5c:f0:92:d8:b7:b9:39:04:ff:56:05:
         c9:d1:d7:4c:6f:a2:16:64:56:76:41:08:3b:9d:e1:58:57:4a:
         ff:0a:01:c4:91:4a:60:6f:ed:23:89:a0:fd:a6:79:e8:2e:9c:
         91:84:2d:d6:74:50:f1:08:52:de:16:29:51:0b:33:d8:fa:4c:
         62:00:f8:45:04:1e:51:e1:cf:7a:ea:7b:59:34:2e:9b:1e:8f:
         04:8f:c1:b0:23:40:6b:74:2d:6b:c1:0d:19:fe:1c:c0:a8:92:
         79:d5:c1:e3:5b:a7:ea:1a:79:d1:32:16:44:cb:56:02:c5:3b:
         ff:63:84:bf:d4:ef:b7:f8:7d:02:a2:d4:66:b4:ce:c8:06:5e:
         81:60:8c:bc:0c:14:d8:38:6b:06:3b:7c:c4:58:37:8a:c2:72:
         52:66:b8:57:78:6b:cc:af:8a:76:03:6f:96:46:50:e2:7a:80:
         90:0a:17:ab:9d:14:8e:95
-----BEGIN CERTIFICATE-----
MIIGJzCCBA+gAwIBAgIJAJX3vnpWtWCXMA0GCSqGSIb3DQEBCwUAMIGTMQswCQYD
VQQGEwJTVjESMBAGA1UECAwJU2FudGEgQW5hMRowGAYDVQQKDBFDZXJ0aWMgTWFz
dGVyIEluYzEQMA4GA1UECwwHQ2VudHJhbDEhMB8GA1UEAwwYd3d3LmNlcnRpY21h
c3RlcmluYy5jb20uMR8wHQYJKoZIhvcNAQkBFhBjZXJ0aWNAbWFpbHMuY29tMB4X
DTE4MDMxMjE2NTQwNFoXDTE5MDMxMjE2NTQwNFowgZQxCzAJBgNVBAYTAlNWMRIw
EAYDVQQIDAlTYW50YSBBbmExEjAQBgNVBAcMCVNhbnRhIEFuYTEQMA4GA1UECgwH
Q2hpbGF0ZTEOMAwGA1UECwwFY2hlcGUxGTAXBgNVBAMMEHd3dy5jaGlsYXRlLmNv
bS4xIDAeBgkqhkiG9w0BCQEWEW1haWxzQGNoaWxhdGUuY29tMIICIjANBgkqhkiG
9w0BAQEFAAOCAg8AMIICCgKCAgEArHFd49yFSq7Jn+BvDtlWsgbdyHArmhjlG4wl
sMSknWMHjL/C1ujPHywrhROm6kpOzXrfXQwMNKx28KzpDWQeqMlojhc/HcxAIybn
fjBLmwky171wSyOqcAy0qyUzf9reDQm2TyOBHaPIZdH43Z2Dri2+8lusJ/ypjDPu
Qe9YfMzPRlbNIvrmDfl728dTJ9OT4ywgEv53ZLI3CtKgQY+BI6p2t3ksjE1jXhqh
OdDF1IsYIAttRE08EDbrHzRj2lwsKUwHWUROnd7yTeuTgS+hSP1To9EO48pIvTj1
bWDeerGHqbEBcwlsM2SkoLcv7rPbtQ2B3wlFePteYxk/RRmsc5al0PHjUtrpx5ZX
QfftkuRZ/wQB81aHS/dIzXoiakW/+EVUsFTtRnhTpPnDudkUSzpLEEZLIie8eaHt
3Q6mwqLmSkV4cZnI0DFoY2bhqOwAt0VoidBqwKHjIvNtvxbk2Fw8nTTsD8HwOAVc
k3eUXc44ODz0zFg9DOAt77NeRzLVNNelQzfo0jnb1QRdyn+BGbosYppC4BuUv2Yq
WPyqgbL05F7v9dqzgQUOp0qGghaX9hgRzB0UpYCYJU0cuk491I+p5a59heuOed7D
jAKAVZwYhJJD6Fb1L3jDMRhjS62xgPAkr9SJf0zSp7IR0CPby/W8zFqS5t7j68lP
V+T1YzsCAwEAAaN7MHkwCQYDVR0TBAIwADAsBglghkgBhvhCAQ0EHxYdT3BlblNT
TCBHZW5lcmF0ZWQgQ2VydGlmaWNhdGUwHQYDVR0OBBYEFIR2jI/ESVV8VQOJkgKY
mtqhSBoNMB8GA1UdIwQYMBaAFHsF3FQ3oVQ5uq7cso7AxwKWGrdQMA0GCSqGSIb3
DQEBCwUAA4ICAQCNH6IrVHrnopuwzQiVx7sOe9WzOYn2i5Do2gCFWszRPVCdkF5+
kzwT2Qr5llgK242tRXjwrmU5nXj7NxQbWj+YxAzJ89sNwQEOyt0vYAS1GEs4YKZJ
aR8J5pqrOvw9MW7rwDr2Qk0QTYssGUeKxnpVAbhV0rx0jN3kWNQTH7sPFvsvUHN2
f8lmAV5Fxj4Ochrzp5fMqnSKUrWB0G4NPUZqWNQt3enSxYOeHIDaNmBCFqdxO2Vs
Jx/m7VY15/Evk3pvVviELYhgMogDF6HsorEy7F06NhToRqFQ253BJ3YNr/Fc22YU
MX6XTMRL7hjEe0mExRbDGS0asKynQkaokM4jDux8pxqQwzsoV/2/NOp02Tjb2Wew
peKlGTkE9VDW/NhfXvSsm9DJPwVsUZuJ+BrgSI8gPMYw3TQwewwMs+yzRp1VTd3W
LqZ61czcXPCS2Le5OQT/VgXJ0ddMb6IWZFZ2QQg7neFYV0r/CgHEkUpgb+0jiaD9
pnnoLpyRhC3WdFDxCFLeFilRCzPY+kxiAPhFBB5R4c966ntZNC6bHo8Ej8GwI0Br
dC1rwQ0Z/hzAqJJ51cHjW6fqGnnRMhZEy1YCxTv/Y4S/1O+3+H0CotRmtM7IBl6B
YIy8DBTYOGsGO3zEWDeKwnJSZrhXeGvMr4p2A2+WRlDieoCQChernRSOlQ==
-----END CERTIFICATE-----
