Certificate:
    Data:
        Version: 3 (0x2)
        Serial Number:
            98:ca:92:7c:ec:c3:33:0b
    Signature Algorithm: sha256WithRSAEncryption
        Issuer: C=SV, ST=Santa Ana, O=winixOS, OU=Tiger, CN=www.henri.com./emailAddress=jl14001@ues.edu.sv
        Validity
            Not Before: Mar 12 16:53:48 2018 GMT
            Not After : Mar 12 16:53:48 2019 GMT
        Subject: C=SV, ST=Santa Ana, L=Santa Ana, O=Torreja, OU=pepe, CN=www.torreja.com/emailAddress=jaja@torreja.com
        Subject Public Key Info:
            Public Key Algorithm: rsaEncryption
                Public-Key: (4096 bit)
                Modulus:
                    00:b8:5d:3e:70:ea:62:d7:ef:fb:76:74:e7:a5:f0:
                    d7:aa:f8:68:cd:1c:96:67:66:82:9b:15:16:fd:32:
                    10:c7:fd:3e:e2:06:c2:07:bf:de:92:02:3f:36:f4:
                    5e:cf:9f:5a:c1:a5:79:3d:83:87:c2:a2:98:88:30:
                    2c:c9:51:ba:06:7e:97:83:de:4b:be:b0:c1:19:28:
                    34:c6:aa:82:e6:4f:bd:8e:93:a6:3a:55:d5:81:d2:
                    00:a8:b9:d8:2b:28:74:a1:2e:c6:f3:7e:e6:b8:c8:
                    ef:c5:67:f4:b1:48:11:56:3d:7a:9d:cf:1c:be:08:
                    60:9a:b4:01:06:e3:22:56:9b:ba:6f:16:58:e8:29:
                    e3:76:06:3b:f2:a9:83:6c:73:61:0d:3b:54:9c:ba:
                    b8:86:a0:8b:93:26:51:e8:c4:fd:a1:3c:6b:ae:b8:
                    58:96:a8:f5:21:1c:f2:4b:d3:58:db:eb:2a:90:49:
                    c4:6a:ce:41:98:c4:8d:08:df:fc:5e:54:d4:74:79:
                    de:bf:9d:87:0a:9c:26:d2:5d:3a:11:03:82:b0:af:
                    5d:f4:fd:5c:c6:8d:fe:38:cc:f1:e4:bf:88:76:aa:
                    28:de:1d:3b:dd:6d:cc:57:3a:a1:68:14:44:7e:5e:
                    80:65:45:71:1e:63:c1:9e:12:54:7c:80:97:c1:e6:
                    a5:a4:e7:df:8c:39:df:83:60:24:41:9b:f0:6b:98:
                    f0:27:83:87:6c:b8:10:d1:72:8e:87:54:76:98:13:
                    35:ea:fc:8c:a0:32:d2:e7:6b:38:4a:99:32:8a:1a:
                    4f:3d:4a:89:51:80:21:3d:6f:60:73:3e:27:89:1f:
                    e5:3b:41:98:ee:33:bb:db:f9:31:bc:41:c0:6e:c1:
                    83:ef:e3:63:36:57:ba:9e:18:b7:f5:3c:27:56:78:
                    6d:e8:52:0e:fb:08:4e:d4:15:e1:6e:66:52:f7:f1:
                    40:d6:b9:f8:e3:34:c3:be:bb:a2:fc:d2:ad:15:b5:
                    ae:0a:b0:6a:e8:f8:59:5e:cf:69:d4:94:b7:9c:7a:
                    ce:7b:ef:22:74:9d:e4:5c:5e:5c:da:7d:f4:d9:db:
                    c3:9c:26:97:43:91:fe:af:b5:b5:09:4a:91:46:ca:
                    32:98:8f:f0:c6:ff:e6:7d:4c:3c:68:56:82:0f:fe:
                    63:fa:fe:a0:b4:1c:c8:cf:51:e2:e7:5e:42:b0:b4:
                    53:8f:96:f7:16:3e:08:1b:d3:06:75:28:77:c8:28:
                    a7:25:12:2f:7a:b8:39:63:6c:4f:78:f0:51:8a:99:
                    0a:9e:37:a5:7a:e9:1a:c4:55:34:c5:d4:ba:fd:be:
                    fb:c7:87:c8:ef:da:88:08:a0:e0:25:7d:4b:35:e0:
                    ce:28:ff
                Exponent: 65537 (0x10001)
        X509v3 extensions:
            X509v3 Basic Constraints: 
                CA:FALSE
            Netscape Comment: 
                OpenSSL Generated Certificate
            X509v3 Subject Key Identifier: 
                98:AA:20:67:E1:60:41:59:BD:DF:3B:2A:4C:0C:58:D6:1D:7A:9F:DF
            X509v3 Authority Key Identifier: 
                keyid:3C:CD:FE:B8:7F:97:44:0B:75:F3:19:C0:6B:0E:D8:40:13:9E:E0:F2

    Signature Algorithm: sha256WithRSAEncryption
         2b:a6:1d:8e:6c:80:ab:c4:a8:29:c2:fb:e2:c1:d8:97:ba:aa:
         26:4c:aa:9f:44:94:3f:bb:2b:a2:de:81:7f:59:a7:31:c4:9d:
         19:75:16:c1:fc:18:6e:a8:8e:e0:2f:96:73:81:78:45:44:96:
         08:cc:8a:6c:c5:03:99:07:93:f5:f1:d6:79:ae:86:2f:1a:2a:
         21:53:b0:35:a5:64:6d:5c:74:6e:63:b9:b3:eb:a3:e9:39:b8:
         2d:fa:16:ea:7e:38:ed:da:6f:83:13:d9:67:36:46:b7:f2:c7:
         19:9e:eb:6a:8e:ab:70:58:ff:22:0a:de:d5:90:b6:1e:1d:86:
         ff:d0:a3:90:be:65:40:ca:ad:2e:5c:42:b2:7b:fd:dc:d3:1d:
         08:69:09:ff:31:ef:30:f9:0b:2e:0b:fc:6b:e3:dc:65:c9:c2:
         b0:93:ad:a1:9a:c9:a8:0b:15:9a:c7:f1:70:c2:c9:e4:5d:08:
         1a:82:df:1c:47:37:30:b7:38:9d:93:d1:84:97:20:9a:bf:48:
         a7:1a:39:f1:b2:e5:ff:d3:af:fb:c7:e1:37:08:e6:54:0b:56:
         e4:22:83:eb:7d:58:50:db:b7:62:7a:49:19:e4:5f:f3:03:90:
         18:4e:49:d7:4b:5b:0d:53:2c:ce:d5:1a:86:62:37:28:80:60:
         d4:f6:91:ff:8c:b3:17:c5:f6:19:88:9e:b0:68:bf:59:4d:23:
         bb:06:f2:c5:97:02:c3:e9:35:fa:c6:8c:1a:0f:f6:ab:00:18:
         aa:6f:00:f5:26:6f:1c:0e:45:cc:79:ba:62:ff:b2:32:12:6a:
         7d:ed:19:91:49:00:0a:1c:a5:3b:a2:86:9e:1f:06:91:7e:01:
         cb:80:57:6a:c4:44:14:08:fa:fc:16:ee:87:15:a9:fe:35:05:
         ca:ba:30:bf:bc:47:3a:92:df:3d:3c:91:15:ea:21:f3:7e:59:
         86:e4:33:5f:4b:f7:50:a4:5f:2a:8d:ee:57:9f:5d:27:7a:54:
         56:d1:0d:32:e4:c9:10:bf:ca:19:03:15:b5:29:0b:74:c3:d1:
         36:d3:aa:33:00:7d:34:a2:cc:b9:49:8a:48:c8:23:f9:55:4d:
         f9:59:c1:ce:4a:07:63:e1:38:5b:a3:94:b3:33:07:71:b2:32:
         3e:4d:16:28:99:14:34:5b:1a:86:57:87:a8:77:34:09:7d:c6:
         c5:a1:9e:ae:fb:2a:e8:f3:2a:50:40:77:7a:20:72:7d:c9:77:
         8d:64:12:9d:32:03:96:d7:cb:3a:60:41:ac:bb:2a:cc:3b:74:
         6b:d9:db:16:eb:95:cd:dc:7d:f7:24:68:8f:51:b0:1b:70:05:
         2d:0e:13:8d:03:2e:93:ea
-----BEGIN CERTIFICATE-----
MIIGDzCCA/egAwIBAgIJAJjKknzswzMLMA0GCSqGSIb3DQEBCwUAMH8xCzAJBgNV
BAYTAlNWMRIwEAYDVQQIDAlTYW50YSBBbmExEDAOBgNVBAoMB3dpbml4T1MxDjAM
BgNVBAsMBVRpZ2VyMRcwFQYDVQQDDA53d3cuaGVucmkuY29tLjEhMB8GCSqGSIb3
DQEJARYSamwxNDAwMUB1ZXMuZWR1LnN2MB4XDTE4MDMxMjE2NTM0OFoXDTE5MDMx
MjE2NTM0OFowgZExCzAJBgNVBAYTAlNWMRIwEAYDVQQIDAlTYW50YSBBbmExEjAQ
BgNVBAcMCVNhbnRhIEFuYTEQMA4GA1UECgwHVG9ycmVqYTENMAsGA1UECwwEcGVw
ZTEYMBYGA1UEAwwPd3d3LnRvcnJlamEuY29tMR8wHQYJKoZIhvcNAQkBFhBqYWph
QHRvcnJlamEuY29tMIICIjANBgkqhkiG9w0BAQEFAAOCAg8AMIICCgKCAgEAuF0+
cOpi1+/7dnTnpfDXqvhozRyWZ2aCmxUW/TIQx/0+4gbCB7/ekgI/NvRez59awaV5
PYOHwqKYiDAsyVG6Bn6Xg95LvrDBGSg0xqqC5k+9jpOmOlXVgdIAqLnYKyh0oS7G
837muMjvxWf0sUgRVj16nc8cvghgmrQBBuMiVpu6bxZY6CnjdgY78qmDbHNhDTtU
nLq4hqCLkyZR6MT9oTxrrrhYlqj1IRzyS9NY2+sqkEnEas5BmMSNCN/8XlTUdHne
v52HCpwm0l06EQOCsK9d9P1cxo3+OMzx5L+Idqoo3h073W3MVzqhaBREfl6AZUVx
HmPBnhJUfICXwealpOffjDnfg2AkQZvwa5jwJ4OHbLgQ0XKOh1R2mBM16vyMoDLS
52s4SpkyihpPPUqJUYAhPW9gcz4niR/lO0GY7jO72/kxvEHAbsGD7+NjNle6nhi3
9TwnVnht6FIO+whO1BXhbmZS9/FA1rn44zTDvrui/NKtFbWuCrBq6PhZXs9p1JS3
nHrOe+8idJ3kXF5c2n302dvDnCaXQ5H+r7W1CUqRRsoymI/wxv/mfUw8aFaCD/5j
+v6gtBzIz1Hi515CsLRTj5b3Fj4IG9MGdSh3yCinJRIverg5Y2xPePBRipkKnjel
eukaxFU0xdS6/b77x4fI79qICKDgJX1LNeDOKP8CAwEAAaN7MHkwCQYDVR0TBAIw
ADAsBglghkgBhvhCAQ0EHxYdT3BlblNTTCBHZW5lcmF0ZWQgQ2VydGlmaWNhdGUw
HQYDVR0OBBYEFJiqIGfhYEFZvd87KkwMWNYdep/fMB8GA1UdIwQYMBaAFDzN/rh/
l0QLdfMZwGsO2EATnuDyMA0GCSqGSIb3DQEBCwUAA4ICAQArph2ObICrxKgpwvvi
wdiXuqomTKqfRJQ/uyui3oF/WacxxJ0ZdRbB/BhuqI7gL5ZzgXhFRJYIzIpsxQOZ
B5P18dZ5roYvGiohU7A1pWRtXHRuY7mz66PpObgt+hbqfjjt2m+DE9lnNka38scZ
nutqjqtwWP8iCt7VkLYeHYb/0KOQvmVAyq0uXEKye/3c0x0IaQn/Me8w+QsuC/xr
49xlycKwk62hmsmoCxWax/FwwsnkXQgagt8cRzcwtzidk9GElyCav0inGjnxsuX/
06/7x+E3COZUC1bkIoPrfVhQ27diekkZ5F/zA5AYTknXS1sNUyzO1RqGYjcogGDU
9pH/jLMXxfYZiJ6waL9ZTSO7BvLFlwLD6TX6xowaD/arABiqbwD1Jm8cDkXMebpi
/7IyEmp97RmRSQAKHKU7ooaeHwaRfgHLgFdqxEQUCPr8Fu6HFan+NQXKujC/vEc6
kt89PJEV6iHzflmG5DNfS/dQpF8qje5Xn10nelRW0Q0y5MkQv8oZAxW1KQt0w9E2
06ozAH00osy5SYpIyCP5VU35WcHOSgdj4Thbo5SzMwdxsjI+TRYomRQ0WxqGV4eo
dzQJfcbFoZ6u+yro8ypQQHd6IHJ9yXeNZBKdMgOW18s6YEGsuyrMO3Rr2dsW65XN
3H33JGiPUbAbcAUtDhONAy6T6g==
-----END CERTIFICATE-----
